; Function Attrs: mustprogress uwtable
define dso_local noundef ptr @_ZN6google8protobuf5Arena18CreateMaybeMessageIN4i18n12phonenumbers23PhoneMetadataCollectionEJEEEPT_PS1_DpOT0_(ptr noundef %0) local_unnamed_addr #3 align 2 personality ptr @__gxx_personality_v0 {
  %2 = icmp eq ptr %0, null
  br i1 %2, label %3, label %10

3:                                                ; preds = %1
  %4 = tail call noalias noundef nonnull dereferenceable(48) ptr @_Znwm(i64 noundef 48) #22
  %5 = getelementptr inbounds i8, ptr %4, i64 8
  store ptr null, ptr %5, align 8
  store ptr getelementptr inbounds ({ [16 x ptr] }, ptr @_ZTVN4i18n12phonenumbers23PhoneMetadataCollectionE, i64 0, i32 0, i64 2), ptr %4, align 8
  %6 = getelementptr inbounds i8, ptr %4, i64 16
  tail call void @llvm.memset.p0.i64(ptr noundef nonnull align 8 dereferenceable(28) %6, i8 0, i64 28, i1 false)
  %7 = load atomic i32, ptr @scc_info_PhoneMetadataCollection_phonemetadata_2eproto acquire, align 8
  %.not.i.i.i.i = icmp eq i32 %7, 0
  br i1 %.not.i.i.i.i, label %_ZN4i18n12phonenumbers23PhoneMetadataCollectionC2Ev.exit, label %8

8:                                                ; preds = %3
  invoke void @_ZN6google8protobuf8internal11InitSCCImplEPNS1_11SCCInfoBaseE(ptr noundef nonnull @scc_info_PhoneMetadataCollection_phonemetadata_2eproto)
          to label %_ZN4i18n12phonenumbers23PhoneMetadataCollectionC2Ev.exit unwind label %.body

.body:                                            ; preds = %8
  %9 = landingpad { ptr, i32 }
          cleanup
  tail call void @_ZN6google8protobuf16RepeatedPtrFieldIN4i18n12phonenumbers13PhoneMetadataEED2Ev(ptr noundef nonnull align 8 dereferenceable(24) %6) #21
  tail call void @_ZdlPv(ptr noundef nonnull %4) #23
  br label %common.resume

common.resume:                                    ; preds = %20, %.body
  %common.resume.op = phi { ptr, i32 } [ %9, %.body ], [ %21, %20 ]
  resume { ptr, i32 } %common.resume.op

10:                                               ; preds = %1
  %11 = getelementptr inbounds i8, ptr %0, i64 112
  %12 = load ptr, ptr %11, align 8
  %.not.i = icmp eq ptr %12, null
  br i1 %.not.i, label %_ZNK6google8protobuf5Arena9AllocHookEPKSt9type_infom.exit, label %13

13:                                               ; preds = %10
  tail call void @_ZNK6google8protobuf5Arena17OnArenaAllocationEPKSt9type_infom(ptr noundef nonnull align 8 dereferenceable(120) %0, ptr noundef nonnull @_ZTIN4i18n12phonenumbers23PhoneMetadataCollectionE, i64 noundef 48)
  br label %_ZNK6google8protobuf5Arena9AllocHookEPKSt9type_infom.exit

_ZNK6google8protobuf5Arena9AllocHookEPKSt9type_infom.exit: ; preds = %10, %13
  %14 = tail call noundef ptr @_ZN6google8protobuf5Arena21AllocateAlignedNoHookEm(ptr noundef nonnull align 8 dereferenceable(120) %0, i64 noundef 48)
  %15 = getelementptr inbounds i8, ptr %14, i64 8
  store ptr %0, ptr %15, align 8
  store ptr getelementptr inbounds ({ [16 x ptr] }, ptr @_ZTVN4i18n12phonenumbers23PhoneMetadataCollectionE, i64 0, i32 0, i64 2), ptr %14, align 8
  %16 = getelementptr inbounds i8, ptr %14, i64 16
  store ptr %0, ptr %16, align 8
  %17 = getelementptr inbounds i8, ptr %14, i64 24
  tail call void @llvm.memset.p0.i64(ptr noundef nonnull align 8 dereferenceable(20) %17, i8 0, i64 20, i1 false)
  %18 = load atomic i32, ptr @scc_info_PhoneMetadataCollection_phonemetadata_2eproto acquire, align 8
  %.not.i.i.i.i14 = icmp eq i32 %18, 0
  br i1 %.not.i.i.i.i14, label %_ZN4i18n12phonenumbers23PhoneMetadataCollectionC2Ev.exit, label %19

19:                                               ; preds = %_ZNK6google8protobuf5Arena9AllocHookEPKSt9type_infom.exit
  invoke void @_ZN6google8protobuf8internal11InitSCCImplEPNS1_11SCCInfoBaseE(ptr noundef nonnull @scc_info_PhoneMetadataCollection_phonemetadata_2eproto)
          to label %_ZN4i18n12phonenumbers23PhoneMetadataCollectionC2Ev.exit unwind label %20

20:                                               ; preds = %19
  %21 = landingpad { ptr, i32 }
          cleanup
  tail call void @_ZN6google8protobuf16RepeatedPtrFieldIN4i18n12phonenumbers13PhoneMetadataEED2Ev(ptr noundef nonnull align 8 dereferenceable(24) %16) #21
  br label %common.resume

_ZN4i18n12phonenumbers23PhoneMetadataCollectionC2Ev.exit: ; preds = %19, %_ZNK6google8protobuf5Arena9AllocHookEPKSt9type_infom.exit, %8, %3
  %.012 = phi ptr [ %4, %3 ], [ %4, %8 ], [ %14, %_ZNK6google8protobuf5Arena9AllocHookEPKSt9type_infom.exit ], [ %14, %19 ]
  ret ptr %.012
}